target datalayout = "e-m:e-p270:32:32-p271:32:32-p272:64:64-i64:64-i128:128-f80:128-n8:16:32:64-S128"
target triple = "x86_64-unknown-linux-gnu"

%struct.PropertyInfo = type { ptr, ptr, ptr, i8, ptr, ptr, ptr, ptr, ptr, ptr }
%struct.Property = type { ptr, ptr, i64, i8, i64, i8, %union.anon, i32, ptr, i32, ptr }
%union.anon = type { i64 }

@.str = private unnamed_addr constant [34 x i8] c"../qemu/hw/core/qdev-properties.c\00", align 1
@qdev_prop_bit = dso_local constant %struct.PropertyInfo { ptr @.str.5, ptr @.str.6, ptr null, i8 0, ptr null, ptr @set_default_value_bool, ptr null, ptr @prop_get_bit, ptr @prop_set_bit, ptr null }, align 8
@.str.27 = private unnamed_addr constant [29 x i8] c"prop->info == &qdev_prop_bit\00", align 1
@__PRETTY_FUNCTION__.qdev_get_prop_mask = private unnamed_addr constant [40 x i8] c"uint32_t qdev_get_prop_mask(Property *)\00", align 1

; Function Attrs: nounwind sspstrong uwtable
define internal i32 @qdev_get_prop_mask(ptr noundef %prop) #0 {
entry:
  %prop.addr = alloca ptr, align 8
  store ptr %prop, ptr %prop.addr, align 8
  %0 = load ptr, ptr %prop.addr, align 8
  %info = getelementptr inbounds %struct.Property, ptr %0, i32 0, i32 1
  %1 = load ptr, ptr %info, align 8
  %cmp = icmp eq ptr %1, @qdev_prop_bit
  br i1 %cmp, label %if.then, label %if.else

if.then:                                          ; preds = %entry
  br label %if.end

if.else:                                          ; preds = %entry
  call void @__assert_fail(ptr noundef @.str.27, ptr noundef @.str, i32 noundef 137, ptr noundef @__PRETTY_FUNCTION__.qdev_get_prop_mask) #9
  unreachable

if.end:                                           ; preds = %if.then
  %2 = load ptr, ptr %prop.addr, align 8
  %bitnr = getelementptr inbounds %struct.Property, ptr %2, i32 0, i32 3
  %3 = load i8, ptr %bitnr, align 8
  %conv = zext i8 %3 to i32
  %shl = shl i32 1, %conv
  ret i32 %shl
}

; Function Attrs: nounwind sspstrong uwtable
define dso_local ptr @object_field_prop_ptr(ptr noundef %obj, ptr noundef %prop) #0 {
entry:
  %obj.addr = alloca ptr, align 8
  %prop.addr = alloca ptr, align 8
  %ptr = alloca ptr, align 8
  store ptr %obj, ptr %obj.addr, align 8
  store ptr %prop, ptr %prop.addr, align 8
  %0 = load ptr, ptr %obj.addr, align 8
  store ptr %0, ptr %ptr, align 8
  %1 = load ptr, ptr %prop.addr, align 8
  %offset = getelementptr inbounds %struct.Property, ptr %1, i32 0, i32 2
  %2 = load i64, ptr %offset, align 8
  %3 = load ptr, ptr %ptr, align 8
  %add.ptr = getelementptr i8, ptr %3, i64 %2
  store ptr %add.ptr, ptr %ptr, align 8
  %4 = load ptr, ptr %ptr, align 8
  ret ptr %4
}

; Function Attrs: nounwind sspstrong uwtable
define internal void @bit_prop_set(ptr noundef %obj, ptr noundef %props, i1 noundef zeroext %val) #0 {
entry:
  %obj.addr = alloca ptr, align 8
  %props.addr = alloca ptr, align 8
  %val.addr = alloca i8, align 1
  %p = alloca ptr, align 8
  %mask = alloca i32, align 4
  store ptr %obj, ptr %obj.addr, align 8
  store ptr %props, ptr %props.addr, align 8
  %frombool = zext i1 %val to i8
  store i8 %frombool, ptr %val.addr, align 1
  %0 = load ptr, ptr %obj.addr, align 8
  %1 = load ptr, ptr %props.addr, align 8
  %call = call ptr @object_field_prop_ptr(ptr noundef %0, ptr noundef %1)
  store ptr %call, ptr %p, align 8
  %2 = load ptr, ptr %props.addr, align 8
  %call1 = call i32 @qdev_get_prop_mask(ptr noundef %2)
  store i32 %call1, ptr %mask, align 4
  %3 = load i8, ptr %val.addr, align 1
  %tobool = trunc i8 %3 to i1
  br i1 %tobool, label %if.then, label %if.else

if.then:                                          ; preds = %entry
  %4 = load i32, ptr %mask, align 4
  %5 = load ptr, ptr %p, align 8
  %6 = load i32, ptr %5, align 4
  %or = or i32 %6, %4
  store i32 %or, ptr %5, align 4
  br label %if.end

if.else:                                          ; preds = %entry
  %7 = load i32, ptr %mask, align 4
  %not = xor i32 %7, -1
  %8 = load ptr, ptr %p, align 8
  %9 = load i32, ptr %8, align 4
  %and = and i32 %9, %not
  store i32 %and, ptr %8, align 4
  br label %if.end

if.end:                                           ; preds = %if.else, %if.then
  ret void
}

; Function Attrs: nounwind sspstrong uwtable
define internal void @prop_set_bit(ptr noundef %obj, ptr noundef %v, ptr noundef %name, ptr noundef %opaque, ptr noundef %errp) #0 {
entry:
  %obj.addr = alloca ptr, align 8
  %v.addr = alloca ptr, align 8
  %name.addr = alloca ptr, align 8
  %opaque.addr = alloca ptr, align 8
  %errp.addr = alloca ptr, align 8
  %prop = alloca ptr, align 8
  %value = alloca i8, align 1
  store ptr %obj, ptr %obj.addr, align 8
  store ptr %v, ptr %v.addr, align 8
  store ptr %name, ptr %name.addr, align 8
  store ptr %opaque, ptr %opaque.addr, align 8
  store ptr %errp, ptr %errp.addr, align 8
  %0 = load ptr, ptr %opaque.addr, align 8
  store ptr %0, ptr %prop, align 8
  %1 = load ptr, ptr %v.addr, align 8
  %2 = load ptr, ptr %name.addr, align 8
  %3 = load ptr, ptr %errp.addr, align 8
  %call = call zeroext i1 @visit_type_bool(ptr noundef %1, ptr noundef %2, ptr noundef %value, ptr noundef %3)
  br i1 %call, label %if.end, label %if.then

if.then:                                          ; preds = %entry
  br label %return

if.end:                                           ; preds = %entry
  %4 = load ptr, ptr %obj.addr, align 8
  %5 = load ptr, ptr %prop, align 8
  %6 = load i8, ptr %value, align 1
  %tobool = trunc i8 %6 to i1
  call void @bit_prop_set(ptr noundef %4, ptr noundef %5, i1 noundef zeroext %tobool)
  br label %return

return:                                           ; preds = %if.end, %if.then
  ret void
}