; Function Attrs: nounwind sspstrong uwtable
define internal void @prop_set_bit(ptr noundef captures(none) %obj, ptr noundef %v, ptr noundef %name, ptr noundef readonly captures(none) %opaque, ptr noundef %errp) #0 {
entry:
  %value = alloca i8, align 1
  %call = call zeroext i1 @visit_type_bool(ptr noundef %v, ptr noundef %name, ptr noundef nonnull %value, ptr noundef %errp) #9
  br i1 %call, label %if.end, label %return

if.end:                                           ; preds = %entry
  %offset.i.i = getelementptr inbounds nuw i8, ptr %opaque, i64 16
  %0 = load i64, ptr %offset.i.i, align 8
  %add.ptr.i.i = getelementptr i8, ptr %obj, i64 %0
  %info.i.i = getelementptr inbounds nuw i8, ptr %opaque, i64 8
  %1 = load ptr, ptr %info.i.i, align 8
  %cmp.i.i = icmp eq ptr %1, @qdev_prop_bit
  br i1 %cmp.i.i, label %qdev_get_prop_mask.exit.i, label %if.else.i.i

if.else.i.i:                                      ; preds = %if.end
  call void @__assert_fail(ptr noundef nonnull @.str.27, ptr noundef nonnull @.str, i32 noundef 137, ptr noundef nonnull @__PRETTY_FUNCTION__.qdev_get_prop_mask) #10
  unreachable

qdev_get_prop_mask.exit.i:                        ; preds = %if.end
  %2 = load i8, ptr %value, align 1
  %tobool = trunc i8 %2 to i1
  %bitnr.i.i = getelementptr inbounds nuw i8, ptr %opaque, i64 24
  %3 = load i8, ptr %bitnr.i.i, align 8
  %conv.i.i = zext nneg i8 %3 to i32
  %shl.i.i = shl nuw i32 1, %conv.i.i
  br i1 %tobool, label %if.then.i, label %if.else.i

if.then.i:                                        ; preds = %qdev_get_prop_mask.exit.i
  %4 = load i32, ptr %add.ptr.i.i, align 4
  %or.i = or i32 %4, %shl.i.i
  br label %bit_prop_set.exit

if.else.i:                                        ; preds = %qdev_get_prop_mask.exit.i
  %not.i = xor i32 %shl.i.i, -1
  %5 = load i32, ptr %add.ptr.i.i, align 4
  %and.i = and i32 %5, %not.i
  br label %bit_prop_set.exit

bit_prop_set.exit:                                ; preds = %if.then.i, %if.else.i
  %storemerge.i = phi i32 [ %and.i, %if.else.i ], [ %or.i, %if.then.i ]
  store i32 %storemerge.i, ptr %add.ptr.i.i, align 4
  br label %return

return:                                           ; preds = %entry, %bit_prop_set.exit
  ret void
}